target datalayout = "e-m:e-p270:32:32-p271:32:32-p272:64:64-i64:64-i128:128-f80:128-n8:16:32:64-S128"
target triple = "x86_64-pc-linux-gnu"

%struct.b2Vec2 = type { float, float }
%struct.b2Transform = type { %struct.b2Vec2, %struct.b2Rot }
%struct.b2Rot = type { float, float }
%struct.b2Polygon = type { [8 x %struct.b2Vec2], [8 x %struct.b2Vec2], %struct.b2Vec2, float, i32 }

; Function Attrs: inlinehint nounwind uwtable
define internal <2 x float> @b2RotateVector(<2 x float> %0, <2 x float> %1) #6 {
  %3 = alloca %struct.b2Vec2, align 4
  %4 = alloca %struct.b2Rot, align 4
  %5 = alloca %struct.b2Vec2, align 4
  store <2 x float> %0, ptr %4, align 4
  store <2 x float> %1, ptr %5, align 4
  %6 = getelementptr inbounds nuw %struct.b2Vec2, ptr %3, i32 0, i32 0
  %7 = getelementptr inbounds nuw %struct.b2Rot, ptr %4, i32 0, i32 0
  %8 = load float, ptr %7, align 4, !tbaa !43
  %9 = getelementptr inbounds nuw %struct.b2Vec2, ptr %5, i32 0, i32 0
  %10 = load float, ptr %9, align 4, !tbaa !30
  %11 = fmul float %8, %10
  %12 = getelementptr inbounds nuw %struct.b2Rot, ptr %4, i32 0, i32 1
  %13 = load float, ptr %12, align 4, !tbaa !44
  %14 = getelementptr inbounds nuw %struct.b2Vec2, ptr %5, i32 0, i32 1
  %15 = load float, ptr %14, align 4, !tbaa !31
  %16 = fmul float %13, %15
  %17 = fsub float %11, %16
  store float %17, ptr %6, align 4, !tbaa !30
  %18 = getelementptr inbounds nuw %struct.b2Vec2, ptr %3, i32 0, i32 1
  %19 = getelementptr inbounds nuw %struct.b2Rot, ptr %4, i32 0, i32 1
  %20 = load float, ptr %19, align 4, !tbaa !44
  %21 = getelementptr inbounds nuw %struct.b2Vec2, ptr %5, i32 0, i32 0
  %22 = load float, ptr %21, align 4, !tbaa !30
  %23 = fmul float %20, %22
  %24 = getelementptr inbounds nuw %struct.b2Rot, ptr %4, i32 0, i32 0
  %25 = load float, ptr %24, align 4, !tbaa !43
  %26 = getelementptr inbounds nuw %struct.b2Vec2, ptr %5, i32 0, i32 1
  %27 = load float, ptr %26, align 4, !tbaa !31
  %28 = fmul float %25, %27
  %29 = fadd float %23, %28
  store float %29, ptr %18, align 4, !tbaa !31
  %30 = load <2 x float>, ptr %3, align 4
  ret <2 x float> %30
}

; Function Attrs: inlinehint nounwind uwtable
define internal <2 x float> @b2TransformPoint(<2 x float> %0, <2 x float> %1, <2 x float> %2) #6 {
  %4 = alloca %struct.b2Vec2, align 4
  %5 = alloca %struct.b2Transform, align 4
  %6 = alloca %struct.b2Vec2, align 4
  %7 = alloca float, align 4
  %8 = alloca float, align 4
  %9 = getelementptr inbounds nuw { <2 x float>, <2 x float> }, ptr %5, i32 0, i32 0
  store <2 x float> %0, ptr %9, align 4
  %10 = getelementptr inbounds nuw { <2 x float>, <2 x float> }, ptr %5, i32 0, i32 1
  store <2 x float> %1, ptr %10, align 4
  store <2 x float> %2, ptr %6, align 4
  call void @llvm.lifetime.start.p0(i64 4, ptr %7) #9
  %11 = getelementptr inbounds nuw %struct.b2Transform, ptr %5, i32 0, i32 1
  %12 = getelementptr inbounds nuw %struct.b2Rot, ptr %11, i32 0, i32 0
  %13 = load float, ptr %12, align 4, !tbaa !37
  %14 = getelementptr inbounds nuw %struct.b2Vec2, ptr %6, i32 0, i32 0
  %15 = load float, ptr %14, align 4, !tbaa !30
  %16 = fmul float %13, %15
  %17 = getelementptr inbounds nuw %struct.b2Transform, ptr %5, i32 0, i32 1
  %18 = getelementptr inbounds nuw %struct.b2Rot, ptr %17, i32 0, i32 1
  %19 = load float, ptr %18, align 4, !tbaa !40
  %20 = getelementptr inbounds nuw %struct.b2Vec2, ptr %6, i32 0, i32 1
  %21 = load float, ptr %20, align 4, !tbaa !31
  %22 = fmul float %19, %21
  %23 = fsub float %16, %22
  %24 = getelementptr inbounds nuw %struct.b2Transform, ptr %5, i32 0, i32 0
  %25 = getelementptr inbounds nuw %struct.b2Vec2, ptr %24, i32 0, i32 0
  %26 = load float, ptr %25, align 4, !tbaa !41
  %27 = fadd float %23, %26
  store float %27, ptr %7, align 4, !tbaa !12
  call void @llvm.lifetime.start.p0(i64 4, ptr %8) #9
  %28 = getelementptr inbounds nuw %struct.b2Transform, ptr %5, i32 0, i32 1
  %29 = getelementptr inbounds nuw %struct.b2Rot, ptr %28, i32 0, i32 1
  %30 = load float, ptr %29, align 4, !tbaa !40
  %31 = getelementptr inbounds nuw %struct.b2Vec2, ptr %6, i32 0, i32 0
  %32 = load float, ptr %31, align 4, !tbaa !30
  %33 = fmul float %30, %32
  %34 = getelementptr inbounds nuw %struct.b2Transform, ptr %5, i32 0, i32 1
  %35 = getelementptr inbounds nuw %struct.b2Rot, ptr %34, i32 0, i32 0
  %36 = load float, ptr %35, align 4, !tbaa !37
  %37 = getelementptr inbounds nuw %struct.b2Vec2, ptr %6, i32 0, i32 1
  %38 = load float, ptr %37, align 4, !tbaa !31
  %39 = fmul float %36, %38
  %40 = fadd float %33, %39
  %41 = getelementptr inbounds nuw %struct.b2Transform, ptr %5, i32 0, i32 0
  %42 = getelementptr inbounds nuw %struct.b2Vec2, ptr %41, i32 0, i32 1
  %43 = load float, ptr %42, align 4, !tbaa !42
  %44 = fadd float %40, %43
  store float %44, ptr %8, align 4, !tbaa !12
  %45 = getelementptr inbounds nuw %struct.b2Vec2, ptr %4, i32 0, i32 0
  %46 = load float, ptr %7, align 4, !tbaa !12
  store float %46, ptr %45, align 4, !tbaa !30
  %47 = getelementptr inbounds nuw %struct.b2Vec2, ptr %4, i32 0, i32 1
  %48 = load float, ptr %8, align 4, !tbaa !12
  store float %48, ptr %47, align 4, !tbaa !31
  call void @llvm.lifetime.end.p0(i64 4, ptr %8) #9
  call void @llvm.lifetime.end.p0(i64 4, ptr %7) #9
  %49 = load <2 x float>, ptr %4, align 4
  ret <2 x float> %49
}

; Function Attrs: nounwind uwtable
define void @b2MakeOffsetRoundedBox(ptr dead_on_unwind noalias writable sret(%struct.b2Polygon) align 4 %0, float noundef %1, float noundef %2, <2 x float> %3, <2 x float> %4, float noundef %5) #0 {
  %7 = alloca %struct.b2Vec2, align 4
  %8 = alloca %struct.b2Rot, align 4
  %9 = alloca float, align 4
  %10 = alloca float, align 4
  %11 = alloca float, align 4
  %12 = alloca %struct.b2Transform, align 4
  %13 = alloca %struct.b2Vec2, align 4
  %14 = alloca %struct.b2Vec2, align 4
  %15 = alloca %struct.b2Vec2, align 4
  %16 = alloca %struct.b2Vec2, align 4
  %17 = alloca %struct.b2Vec2, align 4
  %18 = alloca %struct.b2Vec2, align 4
  %19 = alloca %struct.b2Vec2, align 4
  %20 = alloca %struct.b2Vec2, align 4
  %21 = alloca %struct.b2Vec2, align 4
  %22 = alloca %struct.b2Vec2, align 4
  %23 = alloca %struct.b2Vec2, align 4
  %24 = alloca %struct.b2Vec2, align 4
  %25 = alloca %struct.b2Vec2, align 4
  %26 = alloca %struct.b2Vec2, align 4
  %27 = alloca %struct.b2Vec2, align 4
  %28 = alloca %struct.b2Vec2, align 4
  store <2 x float> %3, ptr %7, align 4
  store <2 x float> %4, ptr %8, align 4
  store float %1, ptr %9, align 4, !tbaa !12
  store float %2, ptr %10, align 4, !tbaa !12
  store float %5, ptr %11, align 4, !tbaa !12
  call void @llvm.lifetime.start.p0(i64 16, ptr %12) #9
  %29 = getelementptr inbounds nuw %struct.b2Transform, ptr %12, i32 0, i32 0
  call void @llvm.memcpy.p0.p0.i64(ptr align 4 %29, ptr align 4 %7, i64 8, i1 false), !tbaa.struct !26
  %30 = getelementptr inbounds nuw %struct.b2Transform, ptr %12, i32 0, i32 1
  call void @llvm.memcpy.p0.p0.i64(ptr align 4 %30, ptr align 4 %8, i64 8, i1 false), !tbaa.struct !26
  call void @llvm.memset.p0.i64(ptr align 4 %0, i8 0, i64 144, i1 false)
  %31 = getelementptr inbounds nuw %struct.b2Polygon, ptr %0, i32 0, i32 4
  store i32 4, ptr %31, align 4, !tbaa !22
  %32 = getelementptr inbounds nuw %struct.b2Polygon, ptr %0, i32 0, i32 0
  %33 = getelementptr inbounds [8 x %struct.b2Vec2], ptr %32, i64 0, i64 0
  call void @llvm.lifetime.start.p0(i64 8, ptr %13) #9
  %34 = getelementptr inbounds nuw %struct.b2Vec2, ptr %14, i32 0, i32 0
  %35 = load float, ptr %9, align 4, !tbaa !12
  %36 = fneg float %35
  store float %36, ptr %34, align 4, !tbaa !30
  %37 = getelementptr inbounds nuw %struct.b2Vec2, ptr %14, i32 0, i32 1
  %38 = load float, ptr %10, align 4, !tbaa !12
  %39 = fneg float %38
  store float %39, ptr %37, align 4, !tbaa !31
  %40 = getelementptr inbounds nuw { <2 x float>, <2 x float> }, ptr %12, i32 0, i32 0
  %41 = load <2 x float>, ptr %40, align 4
  %42 = getelementptr inbounds nuw { <2 x float>, <2 x float> }, ptr %12, i32 0, i32 1
  %43 = load <2 x float>, ptr %42, align 4
  %44 = load <2 x float>, ptr %14, align 4
  %45 = call <2 x float> @b2TransformPoint(<2 x float> %41, <2 x float> %43, <2 x float> %44)
  store <2 x float> %45, ptr %13, align 4
  call void @llvm.memcpy.p0.p0.i64(ptr align 4 %33, ptr align 4 %13, i64 8, i1 false), !tbaa.struct !26
  call void @llvm.lifetime.end.p0(i64 8, ptr %13) #9
  %46 = getelementptr inbounds nuw %struct.b2Polygon, ptr %0, i32 0, i32 0
  %47 = getelementptr inbounds [8 x %struct.b2Vec2], ptr %46, i64 0, i64 1
  call void @llvm.lifetime.start.p0(i64 8, ptr %15) #9
  %48 = getelementptr inbounds nuw %struct.b2Vec2, ptr %16, i32 0, i32 0
  %49 = load float, ptr %9, align 4, !tbaa !12
  store float %49, ptr %48, align 4, !tbaa !30
  %50 = getelementptr inbounds nuw %struct.b2Vec2, ptr %16, i32 0, i32 1
  %51 = load float, ptr %10, align 4, !tbaa !12
  %52 = fneg float %51
  store float %52, ptr %50, align 4, !tbaa !31
  %53 = getelementptr inbounds nuw { <2 x float>, <2 x float> }, ptr %12, i32 0, i32 0
  %54 = load <2 x float>, ptr %53, align 4
  %55 = getelementptr inbounds nuw { <2 x float>, <2 x float> }, ptr %12, i32 0, i32 1
  %56 = load <2 x float>, ptr %55, align 4
  %57 = load <2 x float>, ptr %16, align 4
  %58 = call <2 x float> @b2TransformPoint(<2 x float> %54, <2 x float> %56, <2 x float> %57)
  store <2 x float> %58, ptr %15, align 4
  call void @llvm.memcpy.p0.p0.i64(ptr align 4 %47, ptr align 4 %15, i64 8, i1 false), !tbaa.struct !26
  call void @llvm.lifetime.end.p0(i64 8, ptr %15) #9
  %59 = getelementptr inbounds nuw %struct.b2Polygon, ptr %0, i32 0, i32 0
  %60 = getelementptr inbounds [8 x %struct.b2Vec2], ptr %59, i64 0, i64 2
  call void @llvm.lifetime.start.p0(i64 8, ptr %17) #9
  %61 = getelementptr inbounds nuw %struct.b2Vec2, ptr %18, i32 0, i32 0
  %62 = load float, ptr %9, align 4, !tbaa !12
  store float %62, ptr %61, align 4, !tbaa !30
  %63 = getelementptr inbounds nuw %struct.b2Vec2, ptr %18, i32 0, i32 1
  %64 = load float, ptr %10, align 4, !tbaa !12
  store float %64, ptr %63, align 4, !tbaa !31
  %65 = getelementptr inbounds nuw { <2 x float>, <2 x float> }, ptr %12, i32 0, i32 0
  %66 = load <2 x float>, ptr %65, align 4
  %67 = getelementptr inbounds nuw { <2 x float>, <2 x float> }, ptr %12, i32 0, i32 1
  %68 = load <2 x float>, ptr %67, align 4
  %69 = load <2 x float>, ptr %18, align 4
  %70 = call <2 x float> @b2TransformPoint(<2 x float> %66, <2 x float> %68, <2 x float> %69)
  store <2 x float> %70, ptr %17, align 4
  call void @llvm.memcpy.p0.p0.i64(ptr align 4 %60, ptr align 4 %17, i64 8, i1 false), !tbaa.struct !26
  call void @llvm.lifetime.end.p0(i64 8, ptr %17) #9
  %71 = getelementptr inbounds nuw %struct.b2Polygon, ptr %0, i32 0, i32 0
  %72 = getelementptr inbounds [8 x %struct.b2Vec2], ptr %71, i64 0, i64 3
  call void @llvm.lifetime.start.p0(i64 8, ptr %19) #9
  %73 = getelementptr inbounds nuw %struct.b2Vec2, ptr %20, i32 0, i32 0
  %74 = load float, ptr %9, align 4, !tbaa !12
  %75 = fneg float %74
  store float %75, ptr %73, align 4, !tbaa !30
  %76 = getelementptr inbounds nuw %struct.b2Vec2, ptr %20, i32 0, i32 1
  %77 = load float, ptr %10, align 4, !tbaa !12
  store float %77, ptr %76, align 4, !tbaa !31
  %78 = getelementptr inbounds nuw { <2 x float>, <2 x float> }, ptr %12, i32 0, i32 0
  %79 = load <2 x float>, ptr %78, align 4
  %80 = getelementptr inbounds nuw { <2 x float>, <2 x float> }, ptr %12, i32 0, i32 1
  %81 = load <2 x float>, ptr %80, align 4
  %82 = load <2 x float>, ptr %20, align 4
  %83 = call <2 x float> @b2TransformPoint(<2 x float> %79, <2 x float> %81, <2 x float> %82)
  store <2 x float> %83, ptr %19, align 4
  call void @llvm.memcpy.p0.p0.i64(ptr align 4 %72, ptr align 4 %19, i64 8, i1 false), !tbaa.struct !26
  call void @llvm.lifetime.end.p0(i64 8, ptr %19) #9
  %84 = getelementptr inbounds nuw %struct.b2Polygon, ptr %0, i32 0, i32 1
  %85 = getelementptr inbounds [8 x %struct.b2Vec2], ptr %84, i64 0, i64 0
  call void @llvm.lifetime.start.p0(i64 8, ptr %21) #9
  %86 = getelementptr inbounds nuw %struct.b2Transform, ptr %12, i32 0, i32 1
  %87 = getelementptr inbounds nuw %struct.b2Vec2, ptr %22, i32 0, i32 0
  store float 0.000000e+00, ptr %87, align 4, !tbaa !30
  %88 = getelementptr inbounds nuw %struct.b2Vec2, ptr %22, i32 0, i32 1
  store float -1.000000e+00, ptr %88, align 4, !tbaa !31
  %89 = load <2 x float>, ptr %86, align 4
  %90 = load <2 x float>, ptr %22, align 4
  %91 = call <2 x float> @b2RotateVector(<2 x float> %89, <2 x float> %90)
  store <2 x float> %91, ptr %21, align 4
  call void @llvm.memcpy.p0.p0.i64(ptr align 4 %85, ptr align 4 %21, i64 8, i1 false), !tbaa.struct !26
  call void @llvm.lifetime.end.p0(i64 8, ptr %21) #9
  %92 = getelementptr inbounds nuw %struct.b2Polygon, ptr %0, i32 0, i32 1
  %93 = getelementptr inbounds [8 x %struct.b2Vec2], ptr %92, i64 0, i64 1
  call void @llvm.lifetime.start.p0(i64 8, ptr %23) #9
  %94 = getelementptr inbounds nuw %struct.b2Transform, ptr %12, i32 0, i32 1
  %95 = getelementptr inbounds nuw %struct.b2Vec2, ptr %24, i32 0, i32 0
  store float 1.000000e+00, ptr %95, align 4, !tbaa !30
  %96 = getelementptr inbounds nuw %struct.b2Vec2, ptr %24, i32 0, i32 1
  store float 0.000000e+00, ptr %96, align 4, !tbaa !31
  %97 = load <2 x float>, ptr %94, align 4
  %98 = load <2 x float>, ptr %24, align 4
  %99 = call <2 x float> @b2RotateVector(<2 x float> %97, <2 x float> %98)
  store <2 x float> %99, ptr %23, align 4
  call void @llvm.memcpy.p0.p0.i64(ptr align 4 %93, ptr align 4 %23, i64 8, i1 false), !tbaa.struct !26
  call void @llvm.lifetime.end.p0(i64 8, ptr %23) #9
  %100 = getelementptr inbounds nuw %struct.b2Polygon, ptr %0, i32 0, i32 1
  %101 = getelementptr inbounds [8 x %struct.b2Vec2], ptr %100, i64 0, i64 2
  call void @llvm.lifetime.start.p0(i64 8, ptr %25) #9
  %102 = getelementptr inbounds nuw %struct.b2Transform, ptr %12, i32 0, i32 1
  %103 = getelementptr inbounds nuw %struct.b2Vec2, ptr %26, i32 0, i32 0
  store float 0.000000e+00, ptr %103, align 4, !tbaa !30
  %104 = getelementptr inbounds nuw %struct.b2Vec2, ptr %26, i32 0, i32 1
  store float 1.000000e+00, ptr %104, align 4, !tbaa !31
  %105 = load <2 x float>, ptr %102, align 4
  %106 = load <2 x float>, ptr %26, align 4
  %107 = call <2 x float> @b2RotateVector(<2 x float> %105, <2 x float> %106)
  store <2 x float> %107, ptr %25, align 4
  call void @llvm.memcpy.p0.p0.i64(ptr align 4 %101, ptr align 4 %25, i64 8, i1 false), !tbaa.struct !26
  call void @llvm.lifetime.end.p0(i64 8, ptr %25) #9
  %108 = getelementptr inbounds nuw %struct.b2Polygon, ptr %0, i32 0, i32 1
  %109 = getelementptr inbounds [8 x %struct.b2Vec2], ptr %108, i64 0, i64 3
  call void @llvm.lifetime.start.p0(i64 8, ptr %27) #9
  %110 = getelementptr inbounds nuw %struct.b2Transform, ptr %12, i32 0, i32 1
  %111 = getelementptr inbounds nuw %struct.b2Vec2, ptr %28, i32 0, i32 0
  store float -1.000000e+00, ptr %111, align 4, !tbaa !30
  %112 = getelementptr inbounds nuw %struct.b2Vec2, ptr %28, i32 0, i32 1
  store float 0.000000e+00, ptr %112, align 4, !tbaa !31
  %113 = load <2 x float>, ptr %110, align 4
  %114 = load <2 x float>, ptr %28, align 4
  %115 = call <2 x float> @b2RotateVector(<2 x float> %113, <2 x float> %114)
  store <2 x float> %115, ptr %27, align 4
  call void @llvm.memcpy.p0.p0.i64(ptr align 4 %109, ptr align 4 %27, i64 8, i1 false), !tbaa.struct !26
  call void @llvm.lifetime.end.p0(i64 8, ptr %27) #9
  %116 = load float, ptr %11, align 4, !tbaa !12
  %117 = getelementptr inbounds nuw %struct.b2Polygon, ptr %0, i32 0, i32 3
  store float %116, ptr %117, align 4, !tbaa !24
  %118 = getelementptr inbounds nuw %struct.b2Polygon, ptr %0, i32 0, i32 2
  %119 = getelementptr inbounds nuw %struct.b2Transform, ptr %12, i32 0, i32 0
  call void @llvm.memcpy.p0.p0.i64(ptr align 4 %118, ptr align 4 %119, i64 8, i1 false), !tbaa.struct !26
  call void @llvm.lifetime.end.p0(i64 16, ptr %12) #9
  ret void
}