; Function Attrs: mustprogress nofree norecurse nosync nounwind willreturn memory(argmem: write) uwtable
define void @b2MakeOffsetRoundedBox(ptr dead_on_unwind noalias writable writeonly sret(%struct.b2Polygon) align 4 captures(none) initializes((0, 144)) %0, float noundef %1, float noundef %2, <2 x float> %3, <2 x float> %4, float noundef %5) local_unnamed_addr #7 {
  %7 = getelementptr inbounds nuw i8, ptr %0, i64 32
  tail call void @llvm.memset.p0.i64(ptr noundef nonnull align 4 dereferenceable(144) %7, i8 0, i64 96, i1 false)
  %8 = getelementptr inbounds nuw i8, ptr %0, i64 140
  store i32 4, ptr %8, align 4, !tbaa !18
  %9 = fneg float %1
  %10 = fneg float %2
  %.sroa.3.8.vec.extract.i = extractelement <2 x float> %4, i64 0
  %11 = fmul float %.sroa.3.8.vec.extract.i, %9
  %.sroa.3.12.vec.extract.i = extractelement <2 x float> %4, i64 1
  %12 = fmul float %.sroa.3.12.vec.extract.i, %10
  %13 = fsub float %11, %12
  %.sroa.06.0.vec.extract.i = extractelement <2 x float> %3, i64 0
  %14 = fadd float %.sroa.06.0.vec.extract.i, %13
  %15 = fmul float %.sroa.3.12.vec.extract.i, %9
  %16 = fmul float %.sroa.3.8.vec.extract.i, %10
  %17 = fadd float %15, %16
  %.sroa.06.4.vec.extract.i = extractelement <2 x float> %3, i64 1
  %18 = fadd float %.sroa.06.4.vec.extract.i, %17
  %.sroa.011.0.vec.insert.i = insertelement <2 x float> poison, float %14, i64 0
  %.sroa.011.4.vec.insert.i = insertelement <2 x float> %.sroa.011.0.vec.insert.i, float %18, i64 1
  store <2 x float> %.sroa.011.4.vec.insert.i, ptr %0, align 4
  %19 = getelementptr inbounds nuw i8, ptr %0, i64 8
  %20 = fmul float %1, %.sroa.3.8.vec.extract.i
  %21 = fsub float %20, %12
  %22 = fadd float %.sroa.06.0.vec.extract.i, %21
  %23 = fmul float %1, %.sroa.3.12.vec.extract.i
  %24 = fadd float %23, %16
  %25 = fadd float %.sroa.06.4.vec.extract.i, %24
  %.sroa.011.0.vec.insert.i50 = insertelement <2 x float> poison, float %22, i64 0
  %.sroa.011.4.vec.insert.i51 = insertelement <2 x float> %.sroa.011.0.vec.insert.i50, float %25, i64 1
  store <2 x float> %.sroa.011.4.vec.insert.i51, ptr %19, align 4
  %26 = getelementptr inbounds nuw i8, ptr %0, i64 16
  %27 = fmul float %2, %.sroa.3.12.vec.extract.i
  %28 = fsub float %20, %27
  %29 = fadd float %.sroa.06.0.vec.extract.i, %28
  %30 = fmul float %2, %.sroa.3.8.vec.extract.i
  %31 = fadd float %23, %30
  %32 = fadd float %.sroa.06.4.vec.extract.i, %31
  %.sroa.011.0.vec.insert.i56 = insertelement <2 x float> poison, float %29, i64 0
  %.sroa.011.4.vec.insert.i57 = insertelement <2 x float> %.sroa.011.0.vec.insert.i56, float %32, i64 1
  store <2 x float> %.sroa.011.4.vec.insert.i57, ptr %26, align 4
  %33 = getelementptr inbounds nuw i8, ptr %0, i64 24
  %34 = fsub float %11, %27
  %35 = fadd float %.sroa.06.0.vec.extract.i, %34
  %36 = fadd float %15, %30
  %37 = fadd float %.sroa.06.4.vec.extract.i, %36
  %.sroa.011.0.vec.insert.i62 = insertelement <2 x float> poison, float %35, i64 0
  %.sroa.011.4.vec.insert.i63 = insertelement <2 x float> %.sroa.011.0.vec.insert.i62, float %37, i64 1
  store <2 x float> %.sroa.011.4.vec.insert.i63, ptr %33, align 4
  %38 = getelementptr inbounds nuw i8, ptr %0, i64 64
  %39 = fmul float %.sroa.3.8.vec.extract.i, 0.000000e+00
  %40 = fadd float %.sroa.3.12.vec.extract.i, %39
  %.sroa.010.0.vec.insert.i = insertelement <2 x float> poison, float %40, i64 0
  %41 = fmul float %.sroa.3.12.vec.extract.i, 0.000000e+00
  %42 = fneg float %.sroa.3.8.vec.extract.i
  %43 = fsub float %41, %.sroa.3.8.vec.extract.i
  %.sroa.010.4.vec.insert.i = insertelement <2 x float> %.sroa.010.0.vec.insert.i, float %43, i64 1
  store <2 x float> %.sroa.010.4.vec.insert.i, ptr %38, align 4
  %44 = getelementptr inbounds nuw i8, ptr %0, i64 72
  %45 = fsub float %.sroa.3.8.vec.extract.i, %41
  %.sroa.010.0.vec.insert.i66 = insertelement <2 x float> poison, float %45, i64 0
  %.sroa.010.4.vec.insert.i67 = insertelement <2 x float> %.sroa.010.0.vec.insert.i66, float %40, i64 1
  store <2 x float> %.sroa.010.4.vec.insert.i67, ptr %44, align 4
  %46 = getelementptr inbounds nuw i8, ptr %0, i64 80
  %47 = fsub float %39, %.sroa.3.12.vec.extract.i
  %.sroa.010.0.vec.insert.i70 = insertelement <2 x float> poison, float %47, i64 0
  %48 = fadd float %.sroa.3.8.vec.extract.i, %41
  %.sroa.010.4.vec.insert.i71 = insertelement <2 x float> %.sroa.010.0.vec.insert.i70, float %48, i64 1
  store <2 x float> %.sroa.010.4.vec.insert.i71, ptr %46, align 4
  %49 = getelementptr inbounds nuw i8, ptr %0, i64 88
  %50 = fsub float %42, %41
  %.sroa.010.0.vec.insert.i74 = insertelement <2 x float> poison, float %50, i64 0
  %.sroa.010.4.vec.insert.i75 = insertelement <2 x float> %.sroa.010.0.vec.insert.i74, float %47, i64 1
  store <2 x float> %.sroa.010.4.vec.insert.i75, ptr %49, align 4
  %51 = getelementptr inbounds nuw i8, ptr %0, i64 136
  store float %5, ptr %51, align 4, !tbaa !20
  %52 = getelementptr inbounds nuw i8, ptr %0, i64 128
  store <2 x float> %3, ptr %52, align 4
  ret void
}